; Function Attrs: mustprogress nounwind uwtable
define internal void @_ZN12_GLOBAL__N_122AArch64WinCOFFStreamer23emitWindowsUnwindTablesEv(ptr noundef nonnull align 8 dereferenceable(440) %0) unnamed_addr #0 align 2 {
  %2 = getelementptr inbounds nuw i8, ptr %0, i64 80
  %3 = getelementptr inbounds i8, ptr %0, i64 88
  %4 = load ptr, ptr %3, align 8
  %5 = load ptr, ptr %2, align 8
  %6 = ptrtoint ptr %4 to i64
  %7 = ptrtoint ptr %5 to i64
  %8 = sub i64 %6, %7
  %9 = and i64 %8, 34359738360
  %.not = icmp eq i64 %9, 0
  br i1 %.not, label %12, label %10

10:                                               ; preds = %1
  %11 = getelementptr inbounds nuw i8, ptr %0, i64 432
  tail call void @_ZNK4llvm7Win64EH18ARM64UnwindEmitter4EmitERNS_10MCStreamerE(ptr noundef nonnull align 8 dereferenceable(8) %11, ptr noundef nonnull align 8 dereferenceable(288) %0) #13
  br label %12

12:                                               ; preds = %1, %10
  ret void
}